target datalayout = "e-m:e-p270:32:32-p271:32:32-p272:64:64-i64:64-i128:128-f80:128-n8:16:32:64-S128"
target triple = "x86_64-unknown-linux-gnu"

; Function Attrs: nounwind sspstrong uwtable
define hidden i32 @FLAC__bitwriter_write_raw_uint32(ptr noundef %bw, i32 noundef %val, i32 noundef %bits) #0 {
entry:
  %retval = alloca i32, align 4
  %bw.addr = alloca ptr, align 8
  %val.addr = alloca i32, align 4
  %bits.addr = alloca i32, align 4
  store ptr %bw, ptr %bw.addr, align 8
  store i32 %val, ptr %val.addr, align 4
  store i32 %bits, ptr %bits.addr, align 4
  %0 = load i32, ptr %bits.addr, align 4
  %cmp = icmp ult i32 %0, 32
  br i1 %cmp, label %land.lhs.true, label %if.end

land.lhs.true:                                    ; preds = %entry
  %1 = load i32, ptr %val.addr, align 4
  %2 = load i32, ptr %bits.addr, align 4
  %shr = lshr i32 %1, %2
  %cmp1 = icmp ne i32 %shr, 0
  br i1 %cmp1, label %if.then, label %if.end

if.then:                                          ; preds = %land.lhs.true
  store i32 0, ptr %retval, align 4
  br label %return

if.end:                                           ; preds = %land.lhs.true, %entry
  %3 = load ptr, ptr %bw.addr, align 8
  %4 = load i32, ptr %val.addr, align 4
  %5 = load i32, ptr %bits.addr, align 4
  %call = call i32 @FLAC__bitwriter_write_raw_uint32_nocheck(ptr noundef %3, i32 noundef %4, i32 noundef %5)
  store i32 %call, ptr %retval, align 4
  br label %return

return:                                           ; preds = %if.end, %if.then
  %6 = load i32, ptr %retval, align 4
  ret i32 %6
}

; Function Attrs: nounwind sspstrong uwtable
define hidden i32 @FLAC__bitwriter_write_raw_uint64(ptr noundef %bw, i64 noundef %val, i32 noundef %bits) #0 {
entry:
  %retval = alloca i32, align 4
  %bw.addr = alloca ptr, align 8
  %val.addr = alloca i64, align 8
  %bits.addr = alloca i32, align 4
  store ptr %bw, ptr %bw.addr, align 8
  store i64 %val, ptr %val.addr, align 8
  store i32 %bits, ptr %bits.addr, align 4
  %0 = load i32, ptr %bits.addr, align 4
  %cmp = icmp ugt i32 %0, 32
  br i1 %cmp, label %if.then, label %if.else

if.then:                                          ; preds = %entry
  %1 = load ptr, ptr %bw.addr, align 8
  %2 = load i64, ptr %val.addr, align 8
  %shr = lshr i64 %2, 32
  %conv = trunc i64 %shr to i32
  %3 = load i32, ptr %bits.addr, align 4
  %sub = sub i32 %3, 32
  %call = call i32 @FLAC__bitwriter_write_raw_uint32(ptr noundef %1, i32 noundef %conv, i32 noundef %sub)
  %tobool = icmp ne i32 %call, 0
  br i1 %tobool, label %land.rhs, label %land.end

land.rhs:                                         ; preds = %if.then
  %4 = load ptr, ptr %bw.addr, align 8
  %5 = load i64, ptr %val.addr, align 8
  %conv1 = trunc i64 %5 to i32
  %call2 = call i32 @FLAC__bitwriter_write_raw_uint32_nocheck(ptr noundef %4, i32 noundef %conv1, i32 noundef 32)
  %tobool3 = icmp ne i32 %call2, 0
  br label %land.end

land.end:                                         ; preds = %land.rhs, %if.then
  %6 = phi i1 [ false, %if.then ], [ %tobool3, %land.rhs ]
  %land.ext = zext i1 %6 to i32
  store i32 %land.ext, ptr %retval, align 4
  br label %return

if.else:                                          ; preds = %entry
  %7 = load ptr, ptr %bw.addr, align 8
  %8 = load i64, ptr %val.addr, align 8
  %conv4 = trunc i64 %8 to i32
  %9 = load i32, ptr %bits.addr, align 4
  %call5 = call i32 @FLAC__bitwriter_write_raw_uint32(ptr noundef %7, i32 noundef %conv4, i32 noundef %9)
  store i32 %call5, ptr %retval, align 4
  br label %return

return:                                           ; preds = %if.else, %land.end
  %10 = load i32, ptr %retval, align 4
  ret i32 %10
}

; Function Attrs: nounwind sspstrong uwtable
define hidden i32 @FLAC__bitwriter_write_raw_int64(ptr noundef %bw, i64 noundef %val, i32 noundef %bits) #0 {
entry:
  %bw.addr = alloca ptr, align 8
  %val.addr = alloca i64, align 8
  %bits.addr = alloca i32, align 4
  %uval = alloca i64, align 8
  store ptr %bw, ptr %bw.addr, align 8
  store i64 %val, ptr %val.addr, align 8
  store i32 %bits, ptr %bits.addr, align 4
  %0 = load i64, ptr %val.addr, align 8
  store i64 %0, ptr %uval, align 8
  %1 = load i32, ptr %bits.addr, align 4
  %cmp = icmp ult i32 %1, 64
  br i1 %cmp, label %if.then, label %if.end

if.then:                                          ; preds = %entry
  %2 = load i32, ptr %bits.addr, align 4
  %sh_prom = zext i32 %2 to i64
  %shl = shl i64 -1, %sh_prom
  %not = xor i64 %shl, -1
  %3 = load i64, ptr %uval, align 8
  %and = and i64 %3, %not
  store i64 %and, ptr %uval, align 8
  br label %if.end

if.end:                                           ; preds = %if.then, %entry
  %4 = load ptr, ptr %bw.addr, align 8
  %5 = load i64, ptr %uval, align 8
  %6 = load i32, ptr %bits.addr, align 4
  %call = call i32 @FLAC__bitwriter_write_raw_uint64(ptr noundef %4, i64 noundef %5, i32 noundef %6)
  ret i32 %call
}