; Function Attrs: mustprogress nounwind sspstrong willreturn uwtable
define hidden range(i32 0, 2) i32 @FLAC__bitwriter_write_raw_int64(ptr noundef %bw, i64 noundef %val, i32 noundef %bits) local_unnamed_addr #2 {
entry:
  %cmp = icmp ult i32 %bits, 64
  %sh_prom = zext nneg i32 %bits to i64
  %shl = shl nsw i64 -1, %sh_prom
  %not = xor i64 %shl, -1
  %and = and i64 %val, %not
  %uval.0 = select i1 %cmp, i64 %and, i64 %val
  %cmp.i = icmp ugt i32 %bits, 32
  br i1 %cmp.i, label %if.then.i, label %if.else.i

if.then.i:                                        ; preds = %entry
  %shr.i = lshr i64 %uval.0, 32
  %conv.i = trunc nuw i64 %shr.i to i32
  %sub.i = add i32 %bits, -32
  %cmp.i.i = icmp ugt i32 %sub.i, 31
  %shr.i.i = lshr i32 %conv.i, %sub.i
  %cmp1.not.i.i = icmp eq i32 %shr.i.i, 0
  %or.cond.i.i = select i1 %cmp.i.i, i1 true, i1 %cmp1.not.i.i
  br i1 %or.cond.i.i, label %FLAC__bitwriter_write_raw_uint32.exit.i, label %FLAC__bitwriter_write_raw_uint64.exit

FLAC__bitwriter_write_raw_uint32.exit.i:          ; preds = %if.then.i
  %call.i.i = tail call fastcc i32 @FLAC__bitwriter_write_raw_uint32_nocheck(ptr noundef %bw, i32 noundef %conv.i, i32 noundef %sub.i)
  %tobool.not.i = icmp eq i32 %call.i.i, 0
  br i1 %tobool.not.i, label %FLAC__bitwriter_write_raw_uint64.exit, label %land.rhs.i

land.rhs.i:                                       ; preds = %FLAC__bitwriter_write_raw_uint32.exit.i
  %conv1.i = trunc i64 %uval.0 to i32
  %call2.i = tail call fastcc i32 @FLAC__bitwriter_write_raw_uint32_nocheck(ptr noundef %bw, i32 noundef %conv1.i, i32 noundef 32)
  br label %FLAC__bitwriter_write_raw_uint64.exit

if.else.i:                                        ; preds = %entry
  %conv4.i = trunc i64 %and to i32
  %cmp.i7.i = icmp eq i32 %bits, 32
  %shr.i8.i = lshr i32 %conv4.i, %bits
  %cmp1.not.i9.i = icmp eq i32 %shr.i8.i, 0
  %or.cond.i10.i = select i1 %cmp.i7.i, i1 true, i1 %cmp1.not.i9.i
  br i1 %or.cond.i10.i, label %if.end.i12.i, label %FLAC__bitwriter_write_raw_uint64.exit

if.end.i12.i:                                     ; preds = %if.else.i
  %call.i13.i = tail call fastcc i32 @FLAC__bitwriter_write_raw_uint32_nocheck(ptr noundef %bw, i32 noundef %conv4.i, i32 noundef %bits)
  br label %FLAC__bitwriter_write_raw_uint64.exit

FLAC__bitwriter_write_raw_uint64.exit:            ; preds = %if.then.i, %FLAC__bitwriter_write_raw_uint32.exit.i, %land.rhs.i, %if.else.i, %if.end.i12.i
  %retval.0.i = phi i32 [ 0, %FLAC__bitwriter_write_raw_uint32.exit.i ], [ %call2.i, %land.rhs.i ], [ %call.i13.i, %if.end.i12.i ], [ 0, %if.else.i ], [ 0, %if.then.i ]
  ret i32 %retval.0.i
}